; Function Attrs: mustprogress uwtable
define noundef ptr @lean_kernel_is_def_eq(ptr noundef %0, ptr noundef %1, ptr noundef %2, ptr noundef %3) local_unnamed_addr #0 personality ptr @__gxx_personality_v0 {
  %5 = alloca ptr, align 8
  %6 = alloca ptr, align 8
  %7 = alloca ptr, align 8
  %8 = alloca %"class.lean::elab_environment", align 8
  %9 = alloca %"class.std::function.2", align 8
  store ptr %1, ptr %5, align 8, !tbaa !15
  store ptr %2, ptr %6, align 8, !tbaa !15
  store ptr %3, ptr %7, align 8, !tbaa !15
  call void @llvm.lifetime.start.p0(i64 8, ptr nonnull %8) #15
  store ptr %0, ptr %8, align 8, !tbaa !6
  call void @llvm.lifetime.start.p0(i64 32, ptr nonnull %9) #15
  %10 = getelementptr inbounds nuw i8, ptr %9, i64 16
  %11 = getelementptr inbounds nuw i8, ptr %9, i64 8
  store i64 0, ptr %11, align 8
  %12 = invoke noalias noundef nonnull dereferenceable(32) ptr @_Znwm(i64 noundef 32) #18
          to label %13 unwind label %36

13:                                               ; preds = %4
  %14 = getelementptr inbounds nuw i8, ptr %9, i64 24
  store ptr %8, ptr %12, align 16, !tbaa !51
  %.sroa.5.0..sroa_idx = getelementptr inbounds nuw i8, ptr %12, i64 8
  store ptr %5, ptr %.sroa.5.0..sroa_idx, align 8, !tbaa !16
  %.sroa.6.0..sroa_idx = getelementptr inbounds nuw i8, ptr %12, i64 16
  store ptr %6, ptr %.sroa.6.0..sroa_idx, align 16, !tbaa !16
  %.sroa.7.0..sroa_idx = getelementptr inbounds nuw i8, ptr %12, i64 24
  store ptr %7, ptr %.sroa.7.0..sroa_idx, align 8, !tbaa !16
  store ptr %12, ptr %9, align 8, !tbaa !15
  store ptr @"_ZNSt17_Function_handlerIFP11lean_objectvEZ21lean_kernel_is_def_eqE3$_0E9_M_invokeERKSt9_Any_data", ptr %14, align 8, !tbaa !53
  store ptr @"_ZNSt17_Function_handlerIFP11lean_objectvEZ21lean_kernel_is_def_eqE3$_0E10_M_managerERSt9_Any_dataRKS5_St18_Manager_operation", ptr %10, align 8, !tbaa !21
  %15 = invoke noundef ptr @_ZN4lean23catch_kernel_exceptionsIP11lean_objectEES2_RKSt8functionIFT_vEE(ptr noundef nonnull align 8 dereferenceable(32) %9)
          to label %16 unwind label %38

16:                                               ; preds = %13
  %17 = load ptr, ptr %10, align 8, !tbaa !21
  %.not.i = icmp eq ptr %17, null
  br i1 %.not.i, label %_ZNSt14_Function_baseD2Ev.exit, label %18

18:                                               ; preds = %16
  %19 = invoke noundef zeroext i1 %17(ptr noundef nonnull align 8 dereferenceable(32) %9, ptr noundef nonnull align 8 dereferenceable(32) %9, i32 noundef 3)
          to label %_ZNSt14_Function_baseD2Ev.exit unwind label %20

20:                                               ; preds = %18
  %21 = landingpad { ptr, i32 }
          catch ptr null
  %22 = extractvalue { ptr, i32 } %21, 0
  call void @__clang_call_terminate(ptr %22) #16
  unreachable

_ZNSt14_Function_baseD2Ev.exit:                   ; preds = %16, %18
  call void @llvm.lifetime.end.p0(i64 32, ptr nonnull %9) #15
  %23 = load ptr, ptr %8, align 8, !tbaa !6
  %24 = ptrtoint ptr %23 to i64
  %25 = and i64 %24, 1
  %.not.i.i = icmp eq i64 %25, 0
  br i1 %.not.i.i, label %26, label %_ZN4lean10object_refD2Ev.exit

26:                                               ; preds = %_ZNSt14_Function_baseD2Ev.exit
  %27 = load i32, ptr %23, align 4, !tbaa !11
  %28 = icmp sgt i32 %27, 1
  br i1 %28, label %29, label %31, !prof !14

29:                                               ; preds = %26
  %30 = add nsw i32 %27, -1
  store i32 %30, ptr %23, align 4, !tbaa !11
  br label %_ZN4lean10object_refD2Ev.exit

31:                                               ; preds = %26
  %.not.i.i.i = icmp eq i32 %27, 0
  br i1 %.not.i.i.i, label %_ZN4lean10object_refD2Ev.exit, label %32

32:                                               ; preds = %31
  invoke void @lean_dec_ref_cold(ptr noundef nonnull %23)
          to label %_ZN4lean10object_refD2Ev.exit unwind label %33

33:                                               ; preds = %32
  %34 = landingpad { ptr, i32 }
          catch ptr null
  %35 = extractvalue { ptr, i32 } %34, 0
  call void @__clang_call_terminate(ptr %35) #16
  unreachable

_ZN4lean10object_refD2Ev.exit:                    ; preds = %_ZNSt14_Function_baseD2Ev.exit, %29, %31, %32
  call void @llvm.lifetime.end.p0(i64 8, ptr nonnull %8) #15
  ret ptr %15

36:                                               ; preds = %4
  %37 = landingpad { ptr, i32 }
          cleanup
  br label %_ZNSt14_Function_baseD2Ev.exit5

38:                                               ; preds = %13
  %39 = landingpad { ptr, i32 }
          cleanup
  %40 = load ptr, ptr %10, align 8, !tbaa !21
  %.not.i4 = icmp eq ptr %40, null
  br i1 %.not.i4, label %_ZNSt14_Function_baseD2Ev.exit5, label %41

41:                                               ; preds = %38
  %42 = invoke noundef zeroext i1 %40(ptr noundef nonnull align 8 dereferenceable(32) %9, ptr noundef nonnull align 8 dereferenceable(32) %9, i32 noundef 3)
          to label %_ZNSt14_Function_baseD2Ev.exit5 unwind label %43

43:                                               ; preds = %41
  %44 = landingpad { ptr, i32 }
          catch ptr null
  %45 = extractvalue { ptr, i32 } %44, 0
  call void @__clang_call_terminate(ptr %45) #16
  unreachable

_ZNSt14_Function_baseD2Ev.exit5:                  ; preds = %41, %38, %36
  %.pn = phi { ptr, i32 } [ %37, %36 ], [ %39, %38 ], [ %39, %41 ]
  call void @llvm.lifetime.end.p0(i64 32, ptr nonnull %9) #15
  call void @_ZN4lean10object_refD2Ev(ptr noundef nonnull align 8 dereferenceable(8) %8) #15
  call void @llvm.lifetime.end.p0(i64 8, ptr nonnull %8) #15
  resume { ptr, i32 } %.pn
}